; Function Attrs: nounwind uwtable
define range(i32 -32, 1) i32 @pmix20_bfrop_print_ptr(ptr noundef %0, ptr noundef %1, ptr noundef %2, i16 noundef zeroext %3) local_unnamed_addr #0 {
  %5 = alloca ptr, align 8
  call void @llvm.lifetime.start.p0(i64 8, ptr nonnull %5) #7
  %6 = icmp eq ptr %1, null
  br i1 %6, label %7, label %10

7:                                                ; preds = %4
  %8 = call i32 (ptr, ptr, ...) @asprintf(ptr noundef nonnull %5, ptr noundef nonnull @.str) #7
  %9 = icmp slt i32 %8, 0
  br i1 %9, label %16, label %._crit_edge

._crit_edge:                                      ; preds = %7
  %.pre = load ptr, ptr %5, align 8, !tbaa !20
  br label %11

10:                                               ; preds = %4
  store ptr %1, ptr %5, align 8, !tbaa !20
  br label %11

11:                                               ; preds = %._crit_edge, %10
  %12 = phi ptr [ %.pre, %._crit_edge ], [ %1, %10 ]
  %13 = call i32 (ptr, ptr, ...) @asprintf(ptr noundef %0, ptr noundef nonnull @.str.90, ptr noundef %12, ptr noundef %2) #7
  %14 = icmp slt i32 %13, 0
  %15 = load ptr, ptr %5, align 8, !tbaa !20
  %.not9 = icmp eq ptr %15, %1
  %. = select i1 %14, i32 -32, i32 0
  br i1 %.not9, label %16, label %.sink.split

.sink.split:                                      ; preds = %11
  call void @free(ptr noundef %15) #7
  br label %16

16:                                               ; preds = %11, %.sink.split, %7
  %.0 = phi i32 [ -32, %7 ], [ %., %.sink.split ], [ %., %11 ]
  call void @llvm.lifetime.end.p0(i64 8, ptr nonnull %5) #7
  ret i32 %.0
}